target datalayout = "e-m:e-p270:32:32-p271:32:32-p272:64:64-i64:64-i128:128-f80:128-n8:16:32:64-S128"
target triple = "x86_64-pc-linux-gnu"

%"struct.icu_77::ChineseCalendar::Setting" = type { i32, ptr, ptr, ptr }

@_ZN6icu_7718CalendarAstronomer13SYNODIC_MONTHE = external constant double, align 8

; Function Attrs: inlinehint mustprogress nounwind uwtable
define internal noundef signext i8 @_ZL9U_FAILURE10UErrorCode(i32 noundef %0) #4 {
  %2 = alloca i32, align 4
  store i32 %0, ptr %2, align 4, !tbaa !30
  %3 = load i32, ptr %2, align 4, !tbaa !30
  %4 = icmp sgt i32 %3, 0
  %5 = zext i1 %4 to i8
  ret i8 %5
}

; Function Attrs: mustprogress uwtable
define void @_ZN6icu_7715ChineseCalendar11offsetMonthEiiiR10UErrorCode(ptr noundef nonnull align 8 dereferenceable(193) %0, i32 noundef %1, i32 noundef %2, i32 noundef %3, ptr noundef nonnull align 4 dereferenceable(4) %4) unnamed_addr #0 align 2 {
  %6 = alloca ptr, align 8
  %7 = alloca i32, align 4
  %8 = alloca i32, align 4
  %9 = alloca i32, align 4
  %10 = alloca ptr, align 8
  %11 = alloca %"struct.icu_77::ChineseCalendar::Setting", align 8
  %12 = alloca i32, align 4
  %13 = alloca double, align 8
  %14 = alloca i32, align 4
  store ptr %0, ptr %6, align 8, !tbaa !3
  store i32 %1, ptr %7, align 4, !tbaa !29
  store i32 %2, ptr %8, align 4, !tbaa !29
  store i32 %3, ptr %9, align 4, !tbaa !29
  store ptr %4, ptr %10, align 8, !tbaa !10
  %15 = load ptr, ptr %6, align 8
  call void @llvm.lifetime.start.p0(i64 32, ptr %11) #13
  %16 = load ptr, ptr %10, align 8, !tbaa !10
  %17 = load ptr, ptr %15, align 8, !tbaa !11
  %18 = getelementptr inbounds ptr, ptr %17, i64 57
  %19 = load ptr, ptr %18, align 8
  call void %19(ptr dead_on_unwind writable sret(%"struct.icu_77::ChineseCalendar::Setting") align 8 %11, ptr noundef nonnull align 8 dereferenceable(193) %15, ptr noundef nonnull align 4 dereferenceable(4) %16)
  %20 = load ptr, ptr %10, align 8, !tbaa !10
  %21 = load i32, ptr %20, align 4, !tbaa !30
  %22 = call noundef signext i8 @_ZL9U_FAILURE10UErrorCode(i32 noundef %21)
  %23 = icmp ne i8 %22, 0
  br i1 %23, label %24, label %25

24:                                               ; preds = %5
  store i32 1, ptr %12, align 4
  br label %100

25:                                               ; preds = %5
  call void @llvm.lifetime.start.p0(i64 8, ptr %13) #13
  %26 = load i32, ptr %7, align 4, !tbaa !29
  %27 = sitofp i32 %26 to double
  store double %27, ptr %13, align 8, !tbaa !47
  %28 = load double, ptr @_ZN6icu_7718CalendarAstronomer13SYNODIC_MONTHE, align 8, !tbaa !47
  %29 = load i32, ptr %9, align 4, !tbaa !29
  %30 = sitofp i32 %29 to double
  %31 = fsub double %30, 5.000000e-01
  %32 = load double, ptr %13, align 8, !tbaa !47
  %33 = call double @llvm.fmuladd.f64(double %28, double %31, double %32)
  store double %33, ptr %13, align 8, !tbaa !47
  %34 = load double, ptr %13, align 8, !tbaa !47
  %35 = fcmp olt double %34, 0xC1E0000000000000
  br i1 %35, label %39, label %36

36:                                               ; preds = %25
  %37 = load double, ptr %13, align 8, !tbaa !47
  %38 = fcmp ogt double %37, 0x41DFFFFFFFC00000
  br i1 %38, label %39, label %41

39:                                               ; preds = %36, %25
  %40 = load ptr, ptr %10, align 8, !tbaa !10
  store i32 1, ptr %40, align 4, !tbaa !30
  store i32 1, ptr %12, align 4
  br label %99

41:                                               ; preds = %36
  %42 = load double, ptr %13, align 8, !tbaa !47
  %43 = fptosi double %42 to i32
  store i32 %43, ptr %7, align 4, !tbaa !29
  %44 = getelementptr inbounds nuw %"struct.icu_77::ChineseCalendar::Setting", ptr %11, i32 0, i32 1
  %45 = load ptr, ptr %44, align 8, !tbaa !42
  %46 = load i32, ptr %7, align 4, !tbaa !29
  %47 = sitofp i32 %46 to double
  %48 = load ptr, ptr %10, align 8, !tbaa !10
  %49 = call noundef i32 @_ZN6icu_7712_GLOBAL__N_111newMoonNearEPKNS_8TimeZoneEdaR10UErrorCode(ptr noundef %45, double noundef %47, i8 noundef signext 1, ptr noundef nonnull align 4 dereferenceable(4) %48)
  store i32 %49, ptr %7, align 4, !tbaa !29
  %50 = load ptr, ptr %10, align 8, !tbaa !10
  %51 = load i32, ptr %50, align 4, !tbaa !30
  %52 = call noundef signext i8 @_ZL9U_FAILURE10UErrorCode(i32 noundef %51)
  %53 = icmp ne i8 %52, 0
  br i1 %53, label %54, label %55

54:                                               ; preds = %41
  store i32 1, ptr %12, align 4
  br label %99

55:                                               ; preds = %41
  call void @llvm.lifetime.start.p0(i64 4, ptr %14) #13
  %56 = load i32, ptr %7, align 4, !tbaa !29
  %57 = call signext i8 @uprv_add32_overflow_77(i32 noundef %56, i32 noundef 2440587, ptr noundef %14)
  %58 = icmp ne i8 %57, 0
  br i1 %58, label %64, label %59

59:                                               ; preds = %55
  %60 = load i32, ptr %14, align 4, !tbaa !29
  %61 = load i32, ptr %8, align 4, !tbaa !29
  %62 = call signext i8 @uprv_add32_overflow_77(i32 noundef %60, i32 noundef %61, ptr noundef %14)
  %63 = icmp ne i8 %62, 0
  br i1 %63, label %64, label %66

64:                                               ; preds = %59, %55
  %65 = load ptr, ptr %10, align 8, !tbaa !10
  store i32 1, ptr %65, align 4, !tbaa !30
  store i32 1, ptr %12, align 4
  br label %98

66:                                               ; preds = %59
  %67 = load i32, ptr %8, align 4, !tbaa !29
  %68 = icmp sgt i32 %67, 29
  br i1 %68, label %69, label %95

69:                                               ; preds = %66
  %70 = load i32, ptr %14, align 4, !tbaa !29
  %71 = sub nsw i32 %70, 1
  call void @_ZN6icu_778Calendar3setE19UCalendarDateFieldsi(ptr noundef nonnull align 8 dereferenceable(192) %15, i32 noundef 20, i32 noundef %71)
  %72 = load ptr, ptr %10, align 8, !tbaa !10
  call void @_ZN6icu_778Calendar8completeER10UErrorCode(ptr noundef nonnull align 8 dereferenceable(192) %15, ptr noundef nonnull align 4 dereferenceable(4) %72)
  %73 = load ptr, ptr %10, align 8, !tbaa !10
  %74 = load i32, ptr %73, align 4, !tbaa !30
  %75 = call noundef signext i8 @_ZL9U_FAILURE10UErrorCode(i32 noundef %74)
  %76 = icmp ne i8 %75, 0
  br i1 %76, label %77, label %78

77:                                               ; preds = %69
  store i32 1, ptr %12, align 4
  br label %98

78:                                               ; preds = %69
  %79 = load ptr, ptr %10, align 8, !tbaa !10
  %80 = load ptr, ptr %15, align 8, !tbaa !11
  %81 = getelementptr inbounds ptr, ptr %80, i64 22
  %82 = load ptr, ptr %81, align 8
  %83 = call noundef i32 %82(ptr noundef nonnull align 8 dereferenceable(193) %15, i32 noundef 5, ptr noundef nonnull align 4 dereferenceable(4) %79)
  %84 = load i32, ptr %8, align 4, !tbaa !29
  %85 = icmp sge i32 %83, %84
  br i1 %85, label %86, label %94

86:                                               ; preds = %78
  %87 = load ptr, ptr %10, align 8, !tbaa !10
  %88 = load i32, ptr %87, align 4, !tbaa !30
  %89 = call noundef signext i8 @_ZL9U_FAILURE10UErrorCode(i32 noundef %88)
  %90 = icmp ne i8 %89, 0
  br i1 %90, label %91, label %92

91:                                               ; preds = %86
  store i32 1, ptr %12, align 4
  br label %98

92:                                               ; preds = %86
  %93 = load i32, ptr %14, align 4, !tbaa !29
  call void @_ZN6icu_778Calendar3setE19UCalendarDateFieldsi(ptr noundef nonnull align 8 dereferenceable(192) %15, i32 noundef 20, i32 noundef %93)
  br label %94

94:                                               ; preds = %92, %78
  br label %97

95:                                               ; preds = %66
  %96 = load i32, ptr %14, align 4, !tbaa !29
  call void @_ZN6icu_778Calendar3setE19UCalendarDateFieldsi(ptr noundef nonnull align 8 dereferenceable(192) %15, i32 noundef 20, i32 noundef %96)
  br label %97

97:                                               ; preds = %95, %94
  store i32 0, ptr %12, align 4
  br label %98

98:                                               ; preds = %97, %91, %77, %64
  call void @llvm.lifetime.end.p0(i64 4, ptr %14) #13
  br label %99

99:                                               ; preds = %98, %54, %39
  call void @llvm.lifetime.end.p0(i64 8, ptr %13) #13
  br label %100

100:                                              ; preds = %99, %24
  call void @llvm.lifetime.end.p0(i64 32, ptr %11) #13
  %101 = load i32, ptr %12, align 4
  switch i32 %101, label %103 [
    i32 0, label %102
    i32 1, label %102
  ]

102:                                              ; preds = %100, %100
  ret void

103:                                              ; preds = %100
  unreachable
}