; Function Attrs: mustprogress uwtable
define void @_ZN6icu_7715ChineseCalendar11offsetMonthEiiiR10UErrorCode(ptr noundef nonnull align 8 dereferenceable(193) %0, i32 noundef %1, i32 noundef %2, i32 noundef %3, ptr noundef nonnull align 4 dereferenceable(4) %4) unnamed_addr #0 align 2 {
  %6 = alloca %"struct.icu_77::ChineseCalendar::Setting", align 8
  %7 = alloca i32, align 4
  call void @llvm.lifetime.start.p0(i64 32, ptr nonnull %6) #8
  %8 = load ptr, ptr %0, align 8, !tbaa !3
  %9 = getelementptr inbounds nuw i8, ptr %8, i64 456
  %10 = load ptr, ptr %9, align 8
  call void %10(ptr dead_on_unwind nonnull writable sret(%"struct.icu_77::ChineseCalendar::Setting") align 8 %6, ptr noundef nonnull align 8 dereferenceable(193) %0, ptr noundef nonnull align 4 dereferenceable(4) %4)
  %11 = load i32, ptr %4, align 4, !tbaa !21
  %12 = icmp slt i32 %11, 1
  br i1 %12, label %13, label %54

13:                                               ; preds = %5
  %14 = sitofp i32 %1 to double
  %15 = load double, ptr @_ZN6icu_7718CalendarAstronomer13SYNODIC_MONTHE, align 8, !tbaa !30
  %16 = sitofp i32 %3 to double
  %17 = fadd double %16, -5.000000e-01
  %18 = call double @llvm.fmuladd.f64(double %15, double %17, double %14)
  %19 = fcmp olt double %18, 0xC1E0000000000000
  %20 = fcmp ogt double %18, 0x41DFFFFFFFC00000
  %or.cond = or i1 %19, %20
  br i1 %or.cond, label %21, label %22

21:                                               ; preds = %13
  store i32 1, ptr %4, align 4, !tbaa !21
  br label %54

22:                                               ; preds = %13
  %23 = fptosi double %18 to i32
  %24 = getelementptr inbounds nuw i8, ptr %6, i64 8
  %25 = load ptr, ptr %24, align 8, !tbaa !28
  %26 = sitofp i32 %23 to double
  %27 = call fastcc noundef i32 @_ZN6icu_7712_GLOBAL__N_111newMoonNearEPKNS_8TimeZoneEdaR10UErrorCode(ptr noundef %25, double noundef %26, i8 noundef signext 1, ptr noundef nonnull align 4 dereferenceable(4) %4)
  %28 = load i32, ptr %4, align 4, !tbaa !21
  %29 = icmp slt i32 %28, 1
  br i1 %29, label %30, label %54

30:                                               ; preds = %22
  call void @llvm.lifetime.start.p0(i64 4, ptr nonnull %7) #8
  %31 = call signext i8 @uprv_add32_overflow_77(i32 noundef %27, i32 noundef 2440587, ptr noundef nonnull %7)
  %.not24 = icmp eq i8 %31, 0
  br i1 %.not24, label %32, label %35

32:                                               ; preds = %30
  %33 = load i32, ptr %7, align 4, !tbaa !20
  %34 = call signext i8 @uprv_add32_overflow_77(i32 noundef %33, i32 noundef %2, ptr noundef nonnull %7)
  %.not25 = icmp eq i8 %34, 0
  br i1 %.not25, label %36, label %35

35:                                               ; preds = %32, %30
  store i32 1, ptr %4, align 4, !tbaa !21
  br label %53

36:                                               ; preds = %32
  %37 = icmp sgt i32 %2, 29
  %38 = load i32, ptr %7, align 4, !tbaa !20
  br i1 %37, label %39, label %52

39:                                               ; preds = %36
  %40 = add nsw i32 %38, -1
  call void @_ZN6icu_778Calendar3setE19UCalendarDateFieldsi(ptr noundef nonnull align 8 dereferenceable(192) %0, i32 noundef 20, i32 noundef %40)
  call void @_ZN6icu_778Calendar8completeER10UErrorCode(ptr noundef nonnull align 8 dereferenceable(192) %0, ptr noundef nonnull align 4 dereferenceable(4) %4)
  %41 = load i32, ptr %4, align 4, !tbaa !21
  %42 = icmp slt i32 %41, 1
  br i1 %42, label %43, label %53

43:                                               ; preds = %39
  %44 = load ptr, ptr %0, align 8, !tbaa !3
  %45 = getelementptr inbounds nuw i8, ptr %44, i64 176
  %46 = load ptr, ptr %45, align 8
  %47 = call noundef i32 %46(ptr noundef nonnull align 8 dereferenceable(193) %0, i32 noundef 5, ptr noundef nonnull align 4 dereferenceable(4) %4)
  %.not27 = icmp sge i32 %47, %2
  %48 = load i32, ptr %4, align 4
  %49 = icmp slt i32 %48, 1
  %or.cond30 = select i1 %.not27, i1 %49, i1 false
  br i1 %or.cond30, label %50, label %53

50:                                               ; preds = %43
  %51 = load i32, ptr %7, align 4, !tbaa !20
  call void @_ZN6icu_778Calendar3setE19UCalendarDateFieldsi(ptr noundef nonnull align 8 dereferenceable(192) %0, i32 noundef 20, i32 noundef %51)
  br label %53

52:                                               ; preds = %36
  call void @_ZN6icu_778Calendar3setE19UCalendarDateFieldsi(ptr noundef nonnull align 8 dereferenceable(192) %0, i32 noundef 20, i32 noundef %38)
  br label %53

53:                                               ; preds = %52, %50, %43, %39, %35
  call void @llvm.lifetime.end.p0(i64 4, ptr nonnull %7) #8
  br label %54

54:                                               ; preds = %21, %53, %22, %5
  call void @llvm.lifetime.end.p0(i64 32, ptr nonnull %6) #8
  ret void
}